target datalayout = "e-m:e-p270:32:32-p271:32:32-p272:64:64-i64:64-i128:128-f80:128-n8:16:32:64-S128"
target triple = "x86_64-pc-linux-gnu"

%struct.FullTransactionId = type { i64 }
%struct.BTVacState = type { ptr, ptr, ptr, ptr, i16, ptr, i32, i32, ptr, i32 }
%struct.IndexVacuumInfo = type { ptr, ptr, i8, i8, i8, i32, double, ptr }
%struct.IndexBulkDeleteResult = type { i32, i8, double, double, i32, i32, i32 }
%struct.BTPendingFSM = type { i32, %struct.FullTransactionId }

; Function Attrs: nounwind uwtable
define dso_local void @_bt_pendingfsm_finalize(ptr noundef %0, ptr noundef %1) #0 {
  %3 = alloca ptr, align 8
  %4 = alloca ptr, align 8
  %5 = alloca ptr, align 8
  %6 = alloca ptr, align 8
  %7 = alloca i32, align 4
  %8 = alloca i32, align 4
  %9 = alloca i32, align 4
  %10 = alloca %struct.FullTransactionId, align 8
  store ptr %0, ptr %3, align 8
  store ptr %1, ptr %4, align 8
  call void @llvm.lifetime.start.p0(i64 8, ptr %5) #8
  %11 = load ptr, ptr %4, align 8
  %12 = getelementptr inbounds nuw %struct.BTVacState, ptr %11, i32 0, i32 1
  %13 = load ptr, ptr %12, align 8
  store ptr %13, ptr %5, align 8
  call void @llvm.lifetime.start.p0(i64 8, ptr %6) #8
  %14 = load ptr, ptr %4, align 8
  %15 = getelementptr inbounds nuw %struct.BTVacState, ptr %14, i32 0, i32 0
  %16 = load ptr, ptr %15, align 8
  %17 = getelementptr inbounds nuw %struct.IndexVacuumInfo, ptr %16, i32 0, i32 1
  %18 = load ptr, ptr %17, align 8
  store ptr %18, ptr %6, align 8
  %19 = load ptr, ptr %4, align 8
  %20 = getelementptr inbounds nuw %struct.BTVacState, ptr %19, i32 0, i32 9
  %21 = load i32, ptr %20, align 8
  %22 = icmp eq i32 %21, 0
  br i1 %22, label %23, label %33

23:                                               ; preds = %2
  %24 = load ptr, ptr %4, align 8
  %25 = getelementptr inbounds nuw %struct.BTVacState, ptr %24, i32 0, i32 8
  %26 = load ptr, ptr %25, align 8
  %27 = icmp ne ptr %26, null
  br i1 %27, label %28, label %32

28:                                               ; preds = %23
  %29 = load ptr, ptr %4, align 8
  %30 = getelementptr inbounds nuw %struct.BTVacState, ptr %29, i32 0, i32 8
  %31 = load ptr, ptr %30, align 8
  call void @pfree(ptr noundef %31)
  br label %32

32:                                               ; preds = %28, %23
  store i32 1, ptr %7, align 4
  br label %82

33:                                               ; preds = %2
  %34 = load ptr, ptr %6, align 8
  %35 = call i32 @GetOldestNonRemovableTransactionId(ptr noundef %34)
  call void @llvm.lifetime.start.p0(i64 4, ptr %8) #8
  store i32 0, ptr %8, align 4
  br label %36

36:                                               ; preds = %74, %33
  %37 = load i32, ptr %8, align 4
  %38 = load ptr, ptr %4, align 8
  %39 = getelementptr inbounds nuw %struct.BTVacState, ptr %38, i32 0, i32 9
  %40 = load i32, ptr %39, align 8
  %41 = icmp slt i32 %37, %40
  br i1 %41, label %43, label %42

42:                                               ; preds = %36
  store i32 2, ptr %7, align 4
  br label %77

43:                                               ; preds = %36
  call void @llvm.lifetime.start.p0(i64 4, ptr %9) #8
  %44 = load ptr, ptr %4, align 8
  %45 = getelementptr inbounds nuw %struct.BTVacState, ptr %44, i32 0, i32 8
  %46 = load ptr, ptr %45, align 8
  %47 = load i32, ptr %8, align 4
  %48 = sext i32 %47 to i64
  %49 = getelementptr inbounds %struct.BTPendingFSM, ptr %46, i64 %48
  %50 = getelementptr inbounds nuw %struct.BTPendingFSM, ptr %49, i32 0, i32 0
  %51 = load i32, ptr %50, align 8
  store i32 %51, ptr %9, align 4
  call void @llvm.lifetime.start.p0(i64 8, ptr %10) #8
  %52 = load ptr, ptr %4, align 8
  %53 = getelementptr inbounds nuw %struct.BTVacState, ptr %52, i32 0, i32 8
  %54 = load ptr, ptr %53, align 8
  %55 = load i32, ptr %8, align 4
  %56 = sext i32 %55 to i64
  %57 = getelementptr inbounds %struct.BTPendingFSM, ptr %54, i64 %56
  %58 = getelementptr inbounds nuw %struct.BTPendingFSM, ptr %57, i32 0, i32 1
  call void @llvm.memcpy.p0.p0.i64(ptr align 8 %10, ptr align 8 %58, i64 8, i1 false)
  %59 = load ptr, ptr %6, align 8
  %60 = getelementptr inbounds nuw %struct.FullTransactionId, ptr %10, i32 0, i32 0
  %61 = load i64, ptr %60, align 8
  %62 = call zeroext i1 @GlobalVisCheckRemovableFullXid(ptr noundef %59, i64 %61)
  br i1 %62, label %64, label %63

63:                                               ; preds = %43
  store i32 2, ptr %7, align 4
  br label %71

64:                                               ; preds = %43
  %65 = load ptr, ptr %3, align 8
  %66 = load i32, ptr %9, align 4
  call void @RecordFreeIndexPage(ptr noundef %65, i32 noundef %66)
  %67 = load ptr, ptr %5, align 8
  %68 = getelementptr inbounds nuw %struct.IndexBulkDeleteResult, ptr %67, i32 0, i32 6
  %69 = load i32, ptr %68, align 8
  %70 = add i32 %69, 1
  store i32 %70, ptr %68, align 8
  store i32 0, ptr %7, align 4
  br label %71

71:                                               ; preds = %64, %63
  call void @llvm.lifetime.end.p0(i64 8, ptr %10) #8
  call void @llvm.lifetime.end.p0(i64 4, ptr %9) #8
  %72 = load i32, ptr %7, align 4
  switch i32 %72, label %77 [
    i32 0, label %73
  ]

73:                                               ; preds = %71
  br label %74

74:                                               ; preds = %73
  %75 = load i32, ptr %8, align 4
  %76 = add i32 %75, 1
  store i32 %76, ptr %8, align 4
  br label %36, !llvm.loop !20

77:                                               ; preds = %71, %42
  call void @llvm.lifetime.end.p0(i64 4, ptr %8) #8
  br label %78

78:                                               ; preds = %77
  %79 = load ptr, ptr %4, align 8
  %80 = getelementptr inbounds nuw %struct.BTVacState, ptr %79, i32 0, i32 8
  %81 = load ptr, ptr %80, align 8
  call void @pfree(ptr noundef %81)
  store i32 0, ptr %7, align 4
  br label %82

82:                                               ; preds = %78, %32
  call void @llvm.lifetime.end.p0(i64 8, ptr %6) #8
  call void @llvm.lifetime.end.p0(i64 8, ptr %5) #8
  %83 = load i32, ptr %7, align 4
  switch i32 %83, label %85 [
    i32 0, label %84
    i32 1, label %84
  ]

84:                                               ; preds = %82, %82
  ret void

85:                                               ; preds = %82
  unreachable
}