; Function Attrs: nounwind uwtable
define dso_local void @_bt_pendingfsm_finalize(ptr noundef %0, ptr noundef readonly captures(none) %1) local_unnamed_addr #0 {
  %3 = getelementptr inbounds nuw i8, ptr %1, i64 8
  %4 = load ptr, ptr %3, align 8
  %5 = load ptr, ptr %1, align 8
  %6 = getelementptr inbounds nuw i8, ptr %5, i64 8
  %7 = load ptr, ptr %6, align 8
  %8 = getelementptr inbounds nuw i8, ptr %1, i64 64
  %9 = load i32, ptr %8, align 8
  %10 = icmp eq i32 %9, 0
  br i1 %10, label %11, label %14

11:                                               ; preds = %2
  %12 = getelementptr inbounds nuw i8, ptr %1, i64 56
  %13 = load ptr, ptr %12, align 8
  %.not = icmp eq ptr %13, null
  br i1 %.not, label %34, label %.sink.split

14:                                               ; preds = %2
  %15 = tail call i32 @GetOldestNonRemovableTransactionId(ptr noundef %7) #10
  %16 = load i32, ptr %8, align 8
  %17 = icmp sgt i32 %16, 0
  br i1 %17, label %.lr.ph, label %.critedge

.lr.ph:                                           ; preds = %14
  %18 = getelementptr inbounds nuw i8, ptr %1, i64 56
  %19 = getelementptr inbounds nuw i8, ptr %4, i64 32
  br label %20

20:                                               ; preds = %.lr.ph, %26
  %indvars.iv = phi i64 [ 0, %.lr.ph ], [ %indvars.iv.next, %26 ]
  %21 = load ptr, ptr %18, align 8
  %22 = getelementptr inbounds nuw %struct.BTPendingFSM, ptr %21, i64 %indvars.iv
  %23 = load i32, ptr %22, align 8
  %24 = getelementptr inbounds nuw i8, ptr %22, i64 8
  %.sroa.0.0.copyload = load i64, ptr %24, align 8
  %25 = tail call zeroext i1 @GlobalVisCheckRemovableFullXid(ptr noundef %7, i64 %.sroa.0.0.copyload) #10
  br i1 %25, label %26, label %.critedge

26:                                               ; preds = %20
  tail call void @RecordFreeIndexPage(ptr noundef %0, i32 noundef %23) #10
  %27 = load i32, ptr %19, align 8
  %28 = add i32 %27, 1
  store i32 %28, ptr %19, align 8
  %indvars.iv.next = add nuw nsw i64 %indvars.iv, 1
  %29 = load i32, ptr %8, align 8
  %30 = sext i32 %29 to i64
  %31 = icmp slt i64 %indvars.iv.next, %30
  br i1 %31, label %20, label %.critedge, !llvm.loop !19

.critedge:                                        ; preds = %26, %20, %14
  %32 = getelementptr inbounds nuw i8, ptr %1, i64 56
  %33 = load ptr, ptr %32, align 8
  br label %.sink.split

.sink.split:                                      ; preds = %11, %.critedge
  %.sink = phi ptr [ %33, %.critedge ], [ %13, %11 ]
  tail call void @pfree(ptr noundef %.sink) #10
  br label %34

34:                                               ; preds = %.sink.split, %11
  ret void
}